SF:C:\Users\shiro\Documents\Projects\hex-terapia-visual\terapia-visual\terapia_visual_domain\src\domain\app_settings.rs
FN:49,_RNvNtNtNtCsiLuW8YBmGuA_21terapia_visual_domain6domain12app_settings5testss_28test_serialization_roundtrip
FN:43,_RNvNtNtNtCsiLuW8YBmGuA_21terapia_visual_domain6domain12app_settings5testss_32test_default_language_is_spanish
FN:62,_RNvNtNtNtCsiLuW8YBmGuA_21terapia_visual_domain6domain12app_settings5testss_33test_language_getters_and_setters
FN:14,_RNvMNtNtCsiLuW8YBmGuA_21terapia_visual_domain6domain12app_settingsNtB2_8Language6as_str
FN:33,_RNvMs_NtNtCsiLuW8YBmGuA_21terapia_visual_domain6domain12app_settingsNtB4_11AppSettings12set_language
FN:29,_RNvMs_NtNtCsiLuW8YBmGuA_21terapia_visual_domain6domain12app_settingsNtB4_11AppSettings8language
FNDA:1,_RNvNtNtNtCsiLuW8YBmGuA_21terapia_visual_domain6domain12app_settings5testss_28test_serialization_roundtrip
FNDA:1,_RNvNtNtNtCsiLuW8YBmGuA_21terapia_visual_domain6domain12app_settings5testss_32test_default_language_is_spanish
FNDA:1,_RNvNtNtNtCsiLuW8YBmGuA_21terapia_visual_domain6domain12app_settings5testss_33test_language_getters_and_setters
FNDA:2,_RNvMNtNtCsiLuW8YBmGuA_21terapia_visual_domain6domain12app_settingsNtB2_8Language6as_str
FNDA:2,_RNvMs_NtNtCsiLuW8YBmGuA_21terapia_visual_domain6domain12app_settingsNtB4_11AppSettings12set_language
FNDA:5,_RNvMs_NtNtCsiLuW8YBmGuA_21terapia_visual_domain6domain12app_settingsNtB4_11AppSettings8language
FNF:6
FNH:6
DA:14,2
DA:15,2
DA:16,1
DA:17,1
DA:19,2
DA:29,5
DA:30,5
DA:31,5
DA:33,2
DA:34,2
DA:35,2
DA:43,1
DA:44,1
DA:45,1
DA:46,1
DA:49,1
DA:50,1
DA:51,1
DA:52,1
DA:54,1
DA:55,1
DA:57,1
DA:58,1
DA:59,1
DA:62,1
DA:63,1
DA:64,1
DA:66,1
DA:67,1
DA:68,1
DA:70,1
DA:71,1
DA:72,1
DA:73,1
BRF:0
BRH:0
LF:34
LH:34
end_of_record
SF:C:\Users\shiro\Documents\Projects\hex-terapia-visual\terapia-visual\terapia_visual_domain\src\domain\color.rs
FN:23,_RNvMNtNtCsiLuW8YBmGuA_21terapia_visual_domain6domain5colorNtB2_5Color3new
FN:44,_RNvMNtNtCsiLuW8YBmGuA_21terapia_visual_domain6domain5colorNtB2_5Color6as_str
FN:56,_RNvXs0_NtNtCsiLuW8YBmGuA_21terapia_visual_domain6domain5colorNtB5_5ColorNtNtCs9N2lWLRSIT9_4core3fmt7Display3fmt
FN:50,_RNvXs_NtNtCsiLuW8YBmGuA_21terapia_visual_domain6domain5colorNtB4_5ColorNtNtCs9N2lWLRSIT9_4core7default7Default7default
FN:37,_RNCNvMNtNtCsiLuW8YBmGuA_21terapia_visual_domain6domain5colorNtB4_5Color3new0B8_
FN:66,_RNvNtNtNtCsiLuW8YBmGuA_21terapia_visual_domain6domain5color5testss_16test_valid_color
FN:102,_RNvNtNtNtCsiLuW8YBmGuA_21terapia_visual_domain6domain5color5testss_18test_color_display
FN:96,_RNvNtNtNtCsiLuW8YBmGuA_21terapia_visual_domain6domain5color5testss_18test_default_color
FN:78,_RNvNtNtNtCsiLuW8YBmGuA_21terapia_visual_domain6domain5color5testss_26test_invalid_color_no_hash
FN:90,_RNvNtNtNtCsiLuW8YBmGuA_21terapia_visual_domain6domain5color5testss_26test_invalid_color_non_hex
FN:84,_RNvNtNtNtCsiLuW8YBmGuA_21terapia_visual_domain6domain5color5testss_31test_invalid_color_wrong_length
FN:72,_RNvNtNtNtCsiLuW8YBmGuA_21terapia_visual_domain6domain5color5testss_49test_valid_color_lowercase_converted_to_uppercase
FNDA:67,_RNvMNtNtCsiLuW8YBmGuA_21terapia_visual_domain6domain5colorNtB2_5Color3new
FNDA:5,_RNvMNtNtCsiLuW8YBmGuA_21terapia_visual_domain6domain5colorNtB2_5Color6as_str
FNDA:1,_RNvXs0_NtNtCsiLuW8YBmGuA_21terapia_visual_domain6domain5colorNtB5_5ColorNtNtCs9N2lWLRSIT9_4core3fmt7Display3fmt
FNDA:3,_RNvXs_NtNtCsiLuW8YBmGuA_21terapia_visual_domain6domain5colorNtB4_5ColorNtNtCs9N2lWLRSIT9_4core7default7Default7default
FNDA:385,_RNCNvMNtNtCsiLuW8YBmGuA_21terapia_visual_domain6domain5colorNtB4_5Color3new0B8_
FNDA:1,_RNvNtNtNtCsiLuW8YBmGuA_21terapia_visual_domain6domain5color5testss_16test_valid_color
FNDA:1,_RNvNtNtNtCsiLuW8YBmGuA_21terapia_visual_domain6domain5color5testss_18test_color_display
FNDA:1,_RNvNtNtNtCsiLuW8YBmGuA_21terapia_visual_domain6domain5color5testss_18test_default_color
FNDA:1,_RNvNtNtNtCsiLuW8YBmGuA_21terapia_visual_domain6domain5color5testss_26test_invalid_color_no_hash
FNDA:1,_RNvNtNtNtCsiLuW8YBmGuA_21terapia_visual_domain6domain5color5testss_26test_invalid_color_non_hex
FNDA:1,_RNvNtNtNtCsiLuW8YBmGuA_21terapia_visual_domain6domain5color5testss_31test_invalid_color_wrong_length
FNDA:1,_RNvNtNtNtCsiLuW8YBmGuA_21terapia_visual_domain6domain5color5testss_49test_valid_color_lowercase_converted_to_uppercase
FNF:12
FNH:12
DA:23,67
DA:24,67
DA:27,67
DA:28,1
DA:29,66
DA:31,66
DA:32,66
DA:33,1
DA:34,65
DA:37,385
DA:38,1
DA:39,64
DA:41,64
DA:42,67
DA:44,5
DA:45,5
DA:46,5
DA:50,3
DA:51,3
DA:52,3
DA:56,1
DA:57,1
DA:58,1
DA:66,1
DA:67,1
DA:68,1
DA:69,1
DA:72,1
DA:73,1
DA:74,1
DA:75,1
DA:78,1
DA:79,1
DA:80,1
DA:81,1
DA:84,1
DA:85,1
DA:86,1
DA:87,1
DA:90,1
DA:91,1
DA:92,1
DA:93,1
DA:96,1
DA:97,1
DA:98,1
DA:99,1
DA:102,1
DA:103,1
DA:105,1
DA:106,1
BRF:0
BRH:0
LF:52
LH:52
end_of_record
SF:C:\Users\shiro\Documents\Projects\hex-terapia-visual\terapia-visual\terapia_visual_domain\src\domain\geometry.rs
FN:12,_RNvMNtNtCsiLuW8YBmGuA_21terapia_visual_domain6domain8geometryNtB2_8ZoneRect3new
FNDA:34,_RNvMNtNtCsiLuW8YBmGuA_21terapia_visual_domain6domain8geometryNtB2_8ZoneRect3new
FNF:1
FNH:1
DA:12,34
DA:13,34
DA:14,34
DA:15,34
DA:16,34
DA:17,34
DA:18,34
DA:19,34
BRF:0
BRH:0
LF:8
LH:8
end_of_record
SF:C:\Users\shiro\Documents\Projects\hex-terapia-visual\terapia-visual\terapia_visual_domain\src\domain\layout.rs
FN:72,_RNvNtNtNtCsiLuW8YBmGuA_21terapia_visual_domain6domain6layout5testss_23test_layout_zone_counts
FN:110,_RNvNtNtNtCsiLuW8YBmGuA_21terapia_visual_domain6domain6layout5testss_23test_odd_width_handling
FN:80,_RNvNtNtNtCsiLuW8YBmGuA_21terapia_visual_domain6domain6layout5testss_32test_vertical_layout_calculation
FN:88,_RNvNtNtNtCsiLuW8YBmGuA_21terapia_visual_domain6domain6layout5testss_34test_horizontal_layout_calculation
FN:96,_RNvNtNtNtCsiLuW8YBmGuA_21terapia_visual_domain6domain6layout5testss_36test_checkerboard_layout_calculation
FN:118,_RNvNtNtNtCsiLuW8YBmGuA_21terapia_visual_domain6domain6layout5testss_40test_vertical4columns_layout_calculation
FN:134,_RNvNtNtNtCsiLuW8YBmGuA_21terapia_visual_domain6domain6layout5testss_40test_vertical4columns_odd_width_handling
FN:14,_RNvMNtNtCsiLuW8YBmGuA_21terapia_visual_domain6domain6layoutNtB2_6Layout10zone_count
FN:25,_RNvMNtNtCsiLuW8YBmGuA_21terapia_visual_domain6domain6layoutNtB2_6Layout15calculate_zones
FNDA:1,_RNvNtNtNtCsiLuW8YBmGuA_21terapia_visual_domain6domain6layout5testss_23test_layout_zone_counts
FNDA:1,_RNvNtNtNtCsiLuW8YBmGuA_21terapia_visual_domain6domain6layout5testss_23test_odd_width_handling
FNDA:1,_RNvNtNtNtCsiLuW8YBmGuA_21terapia_visual_domain6domain6layout5testss_32test_vertical_layout_calculation
FNDA:1,_RNvNtNtNtCsiLuW8YBmGuA_21terapia_visual_domain6domain6layout5testss_34test_horizontal_layout_calculation
FNDA:1,_RNvNtNtNtCsiLuW8YBmGuA_21terapia_visual_domain6domain6layout5testss_36test_checkerboard_layout_calculation
FNDA:1,_RNvNtNtNtCsiLuW8YBmGuA_21terapia_visual_domain6domain6layout5testss_40test_vertical4columns_layout_calculation
FNDA:1,_RNvNtNtNtCsiLuW8YBmGuA_21terapia_visual_domain6domain6layout5testss_40test_vertical4columns_odd_width_handling
FNDA:38,_RNvMNtNtCsiLuW8YBmGuA_21terapia_visual_domain6domain6layoutNtB2_6Layout10zone_count
FNDA:7,_RNvMNtNtCsiLuW8YBmGuA_21terapia_visual_domain6domain6layoutNtB2_6Layout15calculate_zones
FNF:9
FNH:9
DA:14,38
DA:15,38
DA:16,25
DA:17,4
DA:18,5
DA:19,4
DA:21,38
DA:25,7
DA:26,7
DA:28,3
DA:29,3
DA:30,3
DA:31,3
DA:35,1
DA:36,1
DA:37,1
DA:38,1
DA:43,1
DA:44,1
DA:45,1
DA:46,1
DA:47,1
DA:48,1
DA:49,1
DA:54,2
DA:56,2
DA:57,2
DA:58,2
DA:59,2
DA:60,2
DA:64,7
DA:72,1
DA:73,1
DA:74,1
DA:75,1
DA:76,1
DA:77,1
DA:80,1
DA:81,1
DA:82,1
DA:83,1
DA:84,1
DA:85,1
DA:88,1
DA:89,1
DA:90,1
DA:91,1
DA:92,1
DA:93,1
DA:96,1
DA:97,1
DA:98,1
DA:100,1
DA:102,1
DA:104,1
DA:106,1
DA:107,1
DA:110,1
DA:111,1
DA:113,1
DA:114,1
DA:115,1
DA:118,1
DA:120,1
DA:121,1
DA:124,1
DA:126,1
DA:128,1
DA:130,1
DA:131,1
DA:134,1
DA:136,1
DA:138,1
DA:139,1
DA:140,1
DA:142,1
DA:143,1
BRF:0
BRH:0
LF:77
LH:77
end_of_record
SF:C:\Users\shiro\Documents\Projects\hex-terapia-visual\terapia-visual\terapia_visual_domain\src\domain\opacity.rs
FN:84,_RNvNtNtNtCsiLuW8YBmGuA_21terapia_visual_domain6domain7opacity5testss_12test_display
FN:51,_RNvNtNtNtCsiLuW8YBmGuA_21terapia_visual_domain6domain7opacity5testss_18test_valid_opacity
FN:78,_RNvNtNtNtCsiLuW8YBmGuA_21terapia_visual_domain6domain7opacity5testss_20test_default_opacity
FN:57,_RNvNtNtNtCsiLuW8YBmGuA_21terapia_visual_domain6domain7opacity5testss_23test_opacity_boundaries
FN:63,_RNvNtNtNtCsiLuW8YBmGuA_21terapia_visual_domain6domain7opacity5testss_28test_invalid_opacity_too_low
FN:69,_RNvNtNtNtCsiLuW8YBmGuA_21terapia_visual_domain6domain7opacity5testss_29test_invalid_opacity_too_high
FN:19,_RNvMNtNtCsiLuW8YBmGuA_21terapia_visual_domain6domain7opacityNtB2_7Opacity3new
FN:28,_RNvMNtNtCsiLuW8YBmGuA_21terapia_visual_domain6domain7opacityNtB2_7Opacity5value
FN:41,_RNvXs0_NtNtCsiLuW8YBmGuA_21terapia_visual_domain6domain7opacityNtB5_7OpacityNtNtCs9N2lWLRSIT9_4core3fmt7Display3fmt
FN:35,_RNvXs_NtNtCsiLuW8YBmGuA_21terapia_visual_domain6domain7opacityNtB4_7OpacityNtNtCs9N2lWLRSIT9_4core7default7Default7default
FNDA:1,_RNvNtNtNtCsiLuW8YBmGuA_21terapia_visual_domain6domain7opacity5testss_12test_display
FNDA:1,_RNvNtNtNtCsiLuW8YBmGuA_21terapia_visual_domain6domain7opacity5testss_18test_valid_opacity
FNDA:1,_RNvNtNtNtCsiLuW8YBmGuA_21terapia_visual_domain6domain7opacity5testss_20test_default_opacity
FNDA:1,_RNvNtNtNtCsiLuW8YBmGuA_21terapia_visual_domain6domain7opacity5testss_23test_opacity_boundaries
FNDA:1,_RNvNtNtNtCsiLuW8YBmGuA_21terapia_visual_domain6domain7opacity5testss_28test_invalid_opacity_too_low
FNDA:1,_RNvNtNtNtCsiLuW8YBmGuA_21terapia_visual_domain6domain7opacity5testss_29test_invalid_opacity_too_high
FNDA:31,_RNvMNtNtCsiLuW8YBmGuA_21terapia_visual_domain6domain7opacityNtB2_7Opacity3new
FNDA:3,_RNvMNtNtCsiLuW8YBmGuA_21terapia_visual_domain6domain7opacityNtB2_7Opacity5value
FNDA:1,_RNvXs0_NtNtCsiLuW8YBmGuA_21terapia_visual_domain6domain7opacityNtB5_7OpacityNtNtCs9N2lWLRSIT9_4core3fmt7Display3fmt
FNDA:37,_RNvXs_NtNtCsiLuW8YBmGuA_21terapia_visual_domain6domain7opacityNtB4_7OpacityNtNtCs9N2lWLRSIT9_4core7default7Default7default
FNF:10
FNH:10
DA:19,31
DA:20,31
DA:21,28
DA:23,3
DA:25,31
DA:28,3
DA:29,3
DA:30,3
DA:35,37
DA:36,37
DA:37,37
DA:41,1
DA:42,1
DA:43,1
DA:51,1
DA:52,1
DA:53,1
DA:54,1
DA:57,1
DA:58,1
DA:59,1
DA:60,1
DA:63,1
DA:64,1
DA:65,1
DA:66,1
DA:69,1
DA:70,1
DA:71,1
DA:73,1
DA:74,1
DA:75,1
DA:78,1
DA:79,1
DA:80,1
DA:81,1
DA:84,1
DA:85,1
DA:86,1
DA:87,1
BRF:0
BRH:0
LF:40
LH:40
end_of_record
SF:C:\Users\shiro\Documents\Projects\hex-terapia-visual\terapia-visual\terapia_visual_domain\src\domain\therapy_config.rs
FN:168,_RNvMNtNtCsiLuW8YBmGuA_21terapia_visual_domain6domain14therapy_configNtB2_13TherapyConfig12therapy_type
FN:178,_RNvMNtNtCsiLuW8YBmGuA_21terapia_visual_domain6domain14therapy_configNtB2_13TherapyConfig12zones_config
FN:61,_RNvMNtNtCsiLuW8YBmGuA_21terapia_visual_domain6domain14therapy_configNtB2_13TherapyConfig13change_layout
FN:183,_RNvMNtNtCsiLuW8YBmGuA_21terapia_visual_domain6domain14therapy_configNtB2_13TherapyConfig14generate_zones
FN:93,_RNvMNtNtCsiLuW8YBmGuA_21terapia_visual_domain6domain14therapy_configNtB2_13TherapyConfig17update_zone_color
FN:131,_RNvMNtNtCsiLuW8YBmGuA_21terapia_visual_domain6domain14therapy_configNtB2_13TherapyConfig19update_zone_opacity
FN:36,_RNvMNtNtCsiLuW8YBmGuA_21terapia_visual_domain6domain14therapy_configNtB2_13TherapyConfig3new
FN:173,_RNvMNtNtCsiLuW8YBmGuA_21terapia_visual_domain6domain14therapy_configNtB2_13TherapyConfig6layout
FN:194,_RNvXs_NtNtCsiLuW8YBmGuA_21terapia_visual_domain6domain14therapy_configNtB4_13TherapyConfigNtNtCs9N2lWLRSIT9_4core7default7Default7default
FN:214,_RNvNtNtNtCsiLuW8YBmGuA_21terapia_visual_domain6domain14therapy_config5tests16two_zones_config
FN:262,_RNvNtNtNtCsiLuW8YBmGuA_21terapia_visual_domain6domain14therapy_config5testss_19test_generate_zones
FN:232,_RNvNtNtNtCsiLuW8YBmGuA_21terapia_visual_domain6domain14therapy_config5testss_21test_new_config_valid
FN:337,_RNvNtNtNtCsiLuW8YBmGuA_21terapia_visual_domain6domain14therapy_config5testss_30test_update_zone_color_success
FN:364,_RNvNtNtNtCsiLuW8YBmGuA_21terapia_visual_domain6domain14therapy_config5testss_32test_update_zone_opacity_success
FN:284,_RNvNtNtNtCsiLuW8YBmGuA_21terapia_visual_domain6domain14therapy_config5testss_34test_change_layout_same_zone_count
FN:246,_RNvNtNtNtCsiLuW8YBmGuA_21terapia_visual_domain6domain14therapy_config5testss_34test_new_config_invalid_zone_count
FN:450,_RNvNtNtNtCsiLuW8YBmGuA_21terapia_visual_domain6domain14therapy_config5testss_34test_vertical4_syncs_color_updates
FN:345,_RNvNtNtNtCsiLuW8YBmGuA_21terapia_visual_domain6domain14therapy_config5testss_36test_update_zone_color_out_of_bounds
FN:475,_RNvNtNtNtCsiLuW8YBmGuA_21terapia_visual_domain6domain14therapy_config5testss_36test_vertical4_syncs_opacity_updates
FN:396,_RNvNtNtNtCsiLuW8YBmGuA_21terapia_visual_domain6domain14therapy_config5testss_37test_checkerboard_syncs_color_updates
FN:372,_RNvNtNtNtCsiLuW8YBmGuA_21terapia_visual_domain6domain14therapy_config5testss_38test_update_zone_opacity_out_of_bounds
FN:421,_RNvNtNtNtCsiLuW8YBmGuA_21terapia_visual_domain6domain14therapy_config5testss_39test_checkerboard_syncs_opacity_updates
FN:292,_RNvNtNtNtCsiLuW8YBmGuA_21terapia_visual_domain6domain14therapy_config5testss_48test_change_layout_truncates_when_reducing_zones
FN:317,_RNvNtNtNtCsiLuW8YBmGuA_21terapia_visual_domain6domain14therapy_config5testss_49test_change_layout_to_vertical4_expands_and_syncs
FN:301,_RNvNtNtNtCsiLuW8YBmGuA_21terapia_visual_domain6domain14therapy_config5testss_50test_change_layout_to_checkboard_expands_and_syncs
FN:355,_RNvNtNtNtCsiLuW8YBmGuA_21terapia_visual_domain6domain14therapy_config5testss_50test_update_zone_color_no_sync_for_vertical_layout
FN:383,_RNvNtNtNtCsiLuW8YBmGuA_21terapia_visual_domain6domain14therapy_config5testss_52test_update_zone_opacity_no_sync_for_vertical_layout
FN:188,_RNCNvMNtNtCsiLuW8YBmGuA_21terapia_visual_domain6domain14therapy_configNtB4_13TherapyConfig14generate_zones0B8_
FNDA:1,_RNvMNtNtCsiLuW8YBmGuA_21terapia_visual_domain6domain14therapy_configNtB2_13TherapyConfig12therapy_type
FNDA:35,_RNvMNtNtCsiLuW8YBmGuA_21terapia_visual_domain6domain14therapy_configNtB2_13TherapyConfig12zones_config
FNDA:10,_RNvMNtNtCsiLuW8YBmGuA_21terapia_visual_domain6domain14therapy_configNtB2_13TherapyConfig13change_layout
FNDA:1,_RNvMNtNtCsiLuW8YBmGuA_21terapia_visual_domain6domain14therapy_configNtB2_13TherapyConfig14generate_zones
FNDA:11,_RNvMNtNtCsiLuW8YBmGuA_21terapia_visual_domain6domain14therapy_configNtB2_13TherapyConfig17update_zone_color
FNDA:11,_RNvMNtNtCsiLuW8YBmGuA_21terapia_visual_domain6domain14therapy_configNtB2_13TherapyConfig19update_zone_opacity
FNDA:24,_RNvMNtNtCsiLuW8YBmGuA_21terapia_visual_domain6domain14therapy_configNtB2_13TherapyConfig3new
FNDA:5,_RNvMNtNtCsiLuW8YBmGuA_21terapia_visual_domain6domain14therapy_configNtB2_13TherapyConfig6layout
FNDA:17,_RNvXs_NtNtCsiLuW8YBmGuA_21terapia_visual_domain6domain14therapy_configNtB4_13TherapyConfigNtNtCs9N2lWLRSIT9_4core7default7Default7default
FNDA:2,_RNvNtNtNtCsiLuW8YBmGuA_21terapia_visual_domain6domain14therapy_config5tests16two_zones_config
FNDA:1,_RNvNtNtNtCsiLuW8YBmGuA_21terapia_visual_domain6domain14therapy_config5testss_19test_generate_zones
FNDA:1,_RNvNtNtNtCsiLuW8YBmGuA_21terapia_visual_domain6domain14therapy_config5testss_21test_new_config_valid
FNDA:1,_RNvNtNtNtCsiLuW8YBmGuA_21terapia_visual_domain6domain14therapy_config5testss_30test_update_zone_color_success
FNDA:1,_RNvNtNtNtCsiLuW8YBmGuA_21terapia_visual_domain6domain14therapy_config5testss_32test_update_zone_opacity_success
FNDA:1,_RNvNtNtNtCsiLuW8YBmGuA_21terapia_visual_domain6domain14therapy_config5testss_34test_change_layout_same_zone_count
FNDA:1,_RNvNtNtNtCsiLuW8YBmGuA_21terapia_visual_domain6domain14therapy_config5testss_34test_new_config_invalid_zone_count
FNDA:1,_RNvNtNtNtCsiLuW8YBmGuA_21terapia_visual_domain6domain14therapy_config5testss_34test_vertical4_syncs_color_updates
FNDA:1,_RNvNtNtNtCsiLuW8YBmGuA_21terapia_visual_domain6domain14therapy_config5testss_36test_update_zone_color_out_of_bounds
FNDA:1,_RNvNtNtNtCsiLuW8YBmGuA_21terapia_visual_domain6domain14therapy_config5testss_36test_vertical4_syncs_opacity_updates
FNDA:1,_RNvNtNtNtCsiLuW8YBmGuA_21terapia_visual_domain6domain14therapy_config5testss_37test_checkerboard_syncs_color_updates
FNDA:1,_RNvNtNtNtCsiLuW8YBmGuA_21terapia_visual_domain6domain14therapy_config5testss_38test_update_zone_opacity_out_of_bounds
FNDA:1,_RNvNtNtNtCsiLuW8YBmGuA_21terapia_visual_domain6domain14therapy_config5testss_39test_checkerboard_syncs_opacity_updates
FNDA:1,_RNvNtNtNtCsiLuW8YBmGuA_21terapia_visual_domain6domain14therapy_config5testss_48test_change_layout_truncates_when_reducing_zones
FNDA:1,_RNvNtNtNtCsiLuW8YBmGuA_21terapia_visual_domain6domain14therapy_config5testss_49test_change_layout_to_vertical4_expands_and_syncs
FNDA:1,_RNvNtNtNtCsiLuW8YBmGuA_21terapia_visual_domain6domain14therapy_config5testss_50test_change_layout_to_checkboard_expands_and_syncs
FNDA:1,_RNvNtNtNtCsiLuW8YBmGuA_21terapia_visual_domain6domain14therapy_config5testss_50test_update_zone_color_no_sync_for_vertical_layout
FNDA:1,_RNvNtNtNtCsiLuW8YBmGuA_21terapia_visual_domain6domain14therapy_config5testss_52test_update_zone_opacity_no_sync_for_vertical_layout
FNDA:2,_RNCNvMNtNtCsiLuW8YBmGuA_21terapia_visual_domain6domain14therapy_configNtB4_13TherapyConfig14generate_zones0B8_
FNF:28
FNH:28
DA:36,24
DA:37,24
DA:38,24
DA:39,24
DA:40,24
DA:41,24
DA:43,24
DA:44,24
DA:45,24
DA:46,1
DA:47,1
DA:48,1
DA:49,1
DA:50,23
DA:51,23
DA:52,23
DA:53,23
DA:54,23
DA:55,23
DA:58,24
DA:61,10
DA:62,10
DA:63,10
DA:65,10
DA:66,7
DA:67,21
DA:68,14
DA:69,14
DA:70,14
DA:71,14
DA:72,7
DA:73,3
DA:74,1
DA:75,2
DA:77,10
DA:80,10
DA:81,4
DA:82,4
DA:83,6
DA:86,10
DA:87,3
DA:88,3
DA:89,7
DA:90,10
DA:93,11
DA:94,11
DA:95,11
DA:96,11
DA:97,11
DA:98,11
DA:99,1
DA:100,10
DA:102,10
DA:105,10
DA:106,4
DA:107,1
DA:108,1
DA:109,1
DA:110,1
DA:111,0
DA:113,4
DA:114,1
DA:115,1
DA:116,1
DA:117,1
DA:118,0
DA:120,2
DA:123,10
DA:124,8
DA:125,8
DA:127,10
DA:128,11
DA:131,11
DA:132,11
DA:133,11
DA:134,11
DA:135,11
DA:136,11
DA:137,1
DA:138,10
DA:140,10
DA:142,10
DA:143,4
DA:144,1
DA:145,1
DA:146,1
DA:147,1
DA:148,0
DA:150,4
DA:151,1
DA:152,1
DA:153,1
DA:154,1
DA:155,0
DA:157,2
DA:160,10
DA:161,8
DA:162,8
DA:164,10
DA:165,11
DA:168,1
DA:169,1
DA:170,1
DA:173,5
DA:174,5
DA:175,5
DA:178,35
DA:179,35
DA:180,35
DA:183,1
DA:184,1
DA:185,1
DA:186,1
DA:187,1
DA:188,2
DA:189,1
DA:190,1
DA:194,17
DA:195,17
DA:196,17
DA:197,17
DA:198,17
DA:199,17
DA:200,17
DA:201,17
DA:202,17
DA:203,17
DA:205,17
DA:206,17
DA:207,17
DA:214,2
DA:215,2
DA:216,2
DA:217,2
DA:218,2
DA:219,2
DA:220,2
DA:221,2
DA:222,2
DA:223,2
DA:225,2
DA:232,1
DA:233,1
DA:234,1
DA:235,1
DA:236,1
DA:238,1
DA:239,1
DA:240,1
DA:241,1
DA:242,1
DA:243,1
DA:246,1
DA:247,1
DA:248,1
DA:249,1
DA:250,1
DA:251,1
DA:252,1
DA:259,1
DA:262,1
DA:263,1
DA:264,1
DA:265,1
DA:266,1
DA:268,1
DA:269,1
DA:270,1
DA:271,1
DA:272,1
DA:273,1
DA:274,1
DA:275,1
DA:276,1
DA:277,1
DA:284,1
DA:285,1
DA:286,1
DA:287,1
DA:288,1
DA:289,1
DA:292,1
DA:293,1
DA:294,1
DA:295,1
DA:296,1
DA:297,1
DA:298,1
DA:301,1
DA:302,1
DA:303,1
DA:304,1
DA:305,1
DA:306,1
DA:307,1
DA:308,1
DA:310,1
DA:311,1
DA:312,1
DA:314,1
DA:317,1
DA:318,1
DA:319,1
DA:320,1
DA:321,1
DA:322,1
DA:323,1
DA:324,1
DA:326,1
DA:327,1
DA:328,1
DA:330,1
DA:337,1
DA:338,1
DA:339,1
DA:340,1
DA:341,1
DA:342,1
DA:345,1
DA:346,1
DA:347,1
DA:348,1
DA:349,1
DA:352,1
DA:355,1
DA:356,1
DA:357,1
DA:358,1
DA:359,1
DA:360,1
DA:361,1
DA:364,1
DA:365,1
DA:366,1
DA:367,1
DA:368,1
DA:369,1
DA:372,1
DA:373,1
DA:374,1
DA:376,1
DA:377,1
DA:380,1
DA:383,1
DA:384,1
DA:385,1
DA:386,1
DA:387,1
DA:388,1
DA:389,1
DA:396,1
DA:397,1
DA:398,1
DA:400,1
DA:401,1
DA:402,1
DA:403,1
DA:406,1
DA:407,1
DA:409,1
DA:410,1
DA:413,1
DA:414,1
DA:416,1
DA:417,1
DA:418,1
DA:421,1
DA:422,1
DA:423,1
DA:425,1
DA:426,1
DA:427,1
DA:428,1
DA:431,1
DA:432,1
DA:434,1
DA:435,1
DA:438,1
DA:439,1
DA:441,1
DA:442,1
DA:443,1
DA:450,1
DA:451,1
DA:452,1
DA:454,1
DA:455,1
DA:456,1
DA:457,1
DA:460,1
DA:461,1
DA:463,1
DA:464,1
DA:467,1
DA:468,1
DA:470,1
DA:471,1
DA:472,1
DA:475,1
DA:476,1
DA:477,1
DA:479,1
DA:480,1
DA:481,1
DA:482,1
DA:485,1
DA:486,1
DA:488,1
DA:489,1
DA:492,1
DA:493,1
DA:495,1
DA:496,1
DA:497,1
BRF:0
BRH:0
LF:315
LH:311
end_of_record
SF:C:\Users\shiro\Documents\Projects\hex-terapia-visual\terapia-visual\terapia_visual_domain\src\domain\zone.rs
FN:52,_RNvNtNtNtCsiLuW8YBmGuA_21terapia_visual_domain6domain4zone5testss_18test_zone_creation
FN:64,_RNvNtNtNtCsiLuW8YBmGuA_21terapia_visual_domain6domain4zone5testss_24test_zone_contains_point
FN:13,_RNvMNtNtCsiLuW8YBmGuA_21terapia_visual_domain6domain4zoneNtB2_4Zone3new
FN:22,_RNvMNtNtCsiLuW8YBmGuA_21terapia_visual_domain6domain4zoneNtB2_4Zone4rect
FN:27,_RNvMNtNtCsiLuW8YBmGuA_21terapia_visual_domain6domain4zoneNtB2_4Zone5color
FN:32,_RNvMNtNtCsiLuW8YBmGuA_21terapia_visual_domain6domain4zoneNtB2_4Zone7opacity
FN:37,_RNvMNtNtCsiLuW8YBmGuA_21terapia_visual_domain6domain4zoneNtB2_4Zone8contains
FNDA:1,_RNvNtNtNtCsiLuW8YBmGuA_21terapia_visual_domain6domain4zone5testss_18test_zone_creation
FNDA:1,_RNvNtNtNtCsiLuW8YBmGuA_21terapia_visual_domain6domain4zone5testss_24test_zone_contains_point
FNDA:4,_RNvMNtNtCsiLuW8YBmGuA_21terapia_visual_domain6domain4zoneNtB2_4Zone3new
FNDA:5,_RNvMNtNtCsiLuW8YBmGuA_21terapia_visual_domain6domain4zoneNtB2_4Zone4rect
FNDA:3,_RNvMNtNtCsiLuW8YBmGuA_21terapia_visual_domain6domain4zoneNtB2_4Zone5color
FNDA:1,_RNvMNtNtCsiLuW8YBmGuA_21terapia_visual_domain6domain4zoneNtB2_4Zone7opacity
FNDA:7,_RNvMNtNtCsiLuW8YBmGuA_21terapia_visual_domain6domain4zoneNtB2_4Zone8contains
FNF:7
FNH:7
DA:13,4
DA:14,4
DA:15,4
DA:16,4
DA:17,4
DA:18,4
DA:19,4
DA:22,5
DA:23,5
DA:24,5
DA:27,3
DA:28,3
DA:29,3
DA:32,1
DA:33,1
DA:34,1
DA:37,7
DA:38,7
DA:39,6
DA:40,5
DA:41,4
DA:42,7
DA:52,1
DA:53,1
DA:54,1
DA:55,1
DA:57,1
DA:58,1
DA:59,1
DA:60,1
DA:61,1
DA:64,1
DA:65,1
DA:66,1
DA:67,1
DA:68,1
DA:71,1
DA:72,1
DA:73,1
DA:75,1
DA:76,1
DA:77,1
DA:78,1
DA:79,1
BRF:0
BRH:0
LF:44
LH:44
end_of_record
SF:C:\Users\shiro\Documents\Projects\hex-terapia-visual\terapia-visual\terapia_visual_domain\src\use_cases\get_app_settings.rs
FN:27,_RNvNtNtNtCsiLuW8YBmGuA_21terapia_visual_domain9use_cases16get_app_settings5testss_36test_get_app_settings_returns_stored
FN:17,_RNvNtNtNtCsiLuW8YBmGuA_21terapia_visual_domain9use_cases16get_app_settings5testss_46test_get_app_settings_returns_default_on_error
FN:27,_RNCNvNtNtNtCsiLuW8YBmGuA_21terapia_visual_domain9use_cases16get_app_settings5testss_36test_get_app_settings_returns_stored0B9_
FN:17,_RNCNvNtNtNtCsiLuW8YBmGuA_21terapia_visual_domain9use_cases16get_app_settings5testss_46test_get_app_settings_returns_default_on_error0B9_
FN:5,_RNvNtNtCsiLuW8YBmGuA_21terapia_visual_domain9use_cases16get_app_settings16get_app_settings
FN:5,_RNCNvNtNtCsiLuW8YBmGuA_21terapia_visual_domain9use_cases16get_app_settings16get_app_settings0B7_
FNDA:1,_RNvNtNtNtCsiLuW8YBmGuA_21terapia_visual_domain9use_cases16get_app_settings5testss_36test_get_app_settings_returns_stored
FNDA:1,_RNvNtNtNtCsiLuW8YBmGuA_21terapia_visual_domain9use_cases16get_app_settings5testss_46test_get_app_settings_returns_default_on_error
FNDA:1,_RNCNvNtNtNtCsiLuW8YBmGuA_21terapia_visual_domain9use_cases16get_app_settings5testss_36test_get_app_settings_returns_stored0B9_
FNDA:1,_RNCNvNtNtNtCsiLuW8YBmGuA_21terapia_visual_domain9use_cases16get_app_settings5testss_46test_get_app_settings_returns_default_on_error0B9_
FNDA:2,_RNvNtNtCsiLuW8YBmGuA_21terapia_visual_domain9use_cases16get_app_settings16get_app_settings
FNDA:2,_RNCNvNtNtCsiLuW8YBmGuA_21terapia_visual_domain9use_cases16get_app_settings16get_app_settings0B7_
FNF:6
FNH:6
DA:5,2
DA:6,2
DA:7,2
DA:17,1
DA:18,1
DA:19,1
DA:20,1
DA:21,1
DA:22,1
DA:23,1
DA:24,1
DA:27,1
DA:28,1
DA:29,1
DA:30,1
DA:31,1
DA:32,1
DA:33,1
DA:34,1
DA:35,1
DA:36,1
DA:37,1
BRF:0
BRH:0
LF:27
LH:27
end_of_record
SF:C:\Users\shiro\Documents\Projects\hex-terapia-visual\terapia-visual\terapia_visual_domain\src\use_cases\get_therapy_config.rs
FN:5,_RNCNvNtNtCsiLuW8YBmGuA_21terapia_visual_domain9use_cases18get_therapy_config18get_therapy_config0B7_
FN:29,_RNCNvNtNtNtCsiLuW8YBmGuA_21terapia_visual_domain9use_cases18get_therapy_config5testss_38test_get_therapy_config_returns_stored0B9_
FN:16,_RNCNvNtNtNtCsiLuW8YBmGuA_21terapia_visual_domain9use_cases18get_therapy_config5testss_48test_get_therapy_config_returns_default_on_error0B9_
FN:29,_RNvNtNtNtCsiLuW8YBmGuA_21terapia_visual_domain9use_cases18get_therapy_config5testss_38test_get_therapy_config_returns_stored
FN:16,_RNvNtNtNtCsiLuW8YBmGuA_21terapia_visual_domain9use_cases18get_therapy_config5testss_48test_get_therapy_config_returns_default_on_error
FN:5,_RNvNtNtCsiLuW8YBmGuA_21terapia_visual_domain9use_cases18get_therapy_config18get_therapy_config
FNDA:2,_RNCNvNtNtCsiLuW8YBmGuA_21terapia_visual_domain9use_cases18get_therapy_config18get_therapy_config0B7_
FNDA:1,_RNCNvNtNtNtCsiLuW8YBmGuA_21terapia_visual_domain9use_cases18get_therapy_config5testss_38test_get_therapy_config_returns_stored0B9_
FNDA:1,_RNCNvNtNtNtCsiLuW8YBmGuA_21terapia_visual_domain9use_cases18get_therapy_config5testss_48test_get_therapy_config_returns_default_on_error0B9_
FNDA:1,_RNvNtNtNtCsiLuW8YBmGuA_21terapia_visual_domain9use_cases18get_therapy_config5testss_38test_get_therapy_config_returns_stored
FNDA:1,_RNvNtNtNtCsiLuW8YBmGuA_21terapia_visual_domain9use_cases18get_therapy_config5testss_48test_get_therapy_config_returns_default_on_error
FNDA:2,_RNvNtNtCsiLuW8YBmGuA_21terapia_visual_domain9use_cases18get_therapy_config18get_therapy_config
FNF:6
FNH:6
DA:5,2
DA:6,2
DA:7,2
DA:16,1
DA:17,1
DA:18,1
DA:19,1
DA:20,1
DA:21,1
DA:23,1
DA:25,1
DA:26,1
DA:29,1
DA:31,1
DA:32,1
DA:35,1
DA:36,1
DA:37,1
DA:38,1
DA:39,1
DA:41,1
DA:44,1
DA:45,1
BRF:0
BRH:0
LF:28
LH:28
end_of_record
SF:C:\Users\shiro\Documents\Projects\hex-terapia-visual\terapia-visual\terapia_visual_domain\src\use_cases\mocks.rs
FN:56,_RNvXs0_NtNtCsiLuW8YBmGuA_21terapia_visual_domain9use_cases5mocksNtB5_11MockOverlayNtNtNtB9_5ports7overlay11OverlayPort13update_config
FN:41,_RNvXs0_NtNtCsiLuW8YBmGuA_21terapia_visual_domain9use_cases5mocksNtB5_11MockOverlayNtNtNtB9_5ports7overlay11OverlayPort4hide
FN:29,_RNvXs0_NtNtCsiLuW8YBmGuA_21terapia_visual_domain9use_cases5mocksNtB5_11MockOverlayNtNtNtB9_5ports7overlay11OverlayPort4show
FN:67,_RNvXs0_NtNtCsiLuW8YBmGuA_21terapia_visual_domain9use_cases5mocksNtB5_11MockOverlayNtNtNtB9_5ports7overlay11OverlayPort9is_active
FN:84,_RNvXs3_NtNtCsiLuW8YBmGuA_21terapia_visual_domain9use_cases5mocksNtB5_24MockTherapyConfigStorageINtNtNtB9_5ports14config_storage13ConfigStorageNtNtNtB9_6domain14therapy_config13TherapyConfigE4load
FN:92,_RNvXs3_NtNtCsiLuW8YBmGuA_21terapia_visual_domain9use_cases5mocksNtB5_24MockTherapyConfigStorageINtNtNtB9_5ports14config_storage13ConfigStorageNtNtNtB9_6domain14therapy_config13TherapyConfigE4save
FN:109,_RNvXs4_NtNtCsiLuW8YBmGuA_21terapia_visual_domain9use_cases5mocksNtB5_20MockAppConfigStorageINtNtNtB9_5ports14config_storage13ConfigStorageNtNtNtB9_6domain12app_settings11AppSettingsE4load
FN:117,_RNvXs4_NtNtCsiLuW8YBmGuA_21terapia_visual_domain9use_cases5mocksNtB5_20MockAppConfigStorageINtNtNtB9_5ports14config_storage13ConfigStorageNtNtNtB9_6domain12app_settings11AppSettingsE4save
FN:139,_RNvXs7_NtNtCsiLuW8YBmGuA_21terapia_visual_domain9use_cases5mocksNtB5_18MockSystemNotifierNtNtNtB9_5ports15system_notifier14SystemNotifier12show_message
FN:143,_RNvXs7_NtNtCsiLuW8YBmGuA_21terapia_visual_domain9use_cases5mocksNtB5_18MockSystemNotifierNtNtNtB9_5ports15system_notifier14SystemNotifier14set_tray_state
FNDA:1,_RNvXs0_NtNtCsiLuW8YBmGuA_21terapia_visual_domain9use_cases5mocksNtB5_11MockOverlayNtNtNtB9_5ports7overlay11OverlayPort13update_config
FNDA:1,_RNvXs0_NtNtCsiLuW8YBmGuA_21terapia_visual_domain9use_cases5mocksNtB5_11MockOverlayNtNtNtB9_5ports7overlay11OverlayPort4hide
FNDA:1,_RNvXs0_NtNtCsiLuW8YBmGuA_21terapia_visual_domain9use_cases5mocksNtB5_11MockOverlayNtNtNtB9_5ports7overlay11OverlayPort4show
FNDA:8,_RNvXs0_NtNtCsiLuW8YBmGuA_21terapia_visual_domain9use_cases5mocksNtB5_11MockOverlayNtNtNtB9_5ports7overlay11OverlayPort9is_active
FNDA:2,_RNvXs3_NtNtCsiLuW8YBmGuA_21terapia_visual_domain9use_cases5mocksNtB5_24MockTherapyConfigStorageINtNtNtB9_5ports14config_storage13ConfigStorageNtNtNtB9_6domain14therapy_config13TherapyConfigE4load
FNDA:2,_RNvXs3_NtNtCsiLuW8YBmGuA_21terapia_visual_domain9use_cases5mocksNtB5_24MockTherapyConfigStorageINtNtNtB9_5ports14config_storage13ConfigStorageNtNtNtB9_6domain14therapy_config13TherapyConfigE4save
FNDA:2,_RNvXs4_NtNtCsiLuW8YBmGuA_21terapia_visual_domain9use_cases5mocksNtB5_20MockAppConfigStorageINtNtNtB9_5ports14config_storage13ConfigStorageNtNtNtB9_6domain12app_settings11AppSettingsE4load
FNDA:2,_RNvXs4_NtNtCsiLuW8YBmGuA_21terapia_visual_domain9use_cases5mocksNtB5_20MockAppConfigStorageINtNtNtB9_5ports14config_storage13ConfigStorageNtNtNtB9_6domain12app_settings11AppSettingsE4save
FNDA:0,_RNvXs7_NtNtCsiLuW8YBmGuA_21terapia_visual_domain9use_cases5mocksNtB5_18MockSystemNotifierNtNtNtB9_5ports15system_notifier14SystemNotifier12show_message
FNDA:0,_RNvXs7_NtNtCsiLuW8YBmGuA_21terapia_visual_domain9use_cases5mocksNtB5_18MockSystemNotifierNtNtNtB9_5ports15system_notifier14SystemNotifier14set_tray_state
FNF:10
FNH:8
DA:29,1
DA:39,1
DA:41,1
DA:49,1
DA:56,1
DA:65,1
DA:67,8
DA:68,8
DA:69,8
DA:84,2
DA:90,2
DA:92,2
DA:98,2
DA:109,2
DA:115,2
DA:117,2
DA:123,2
DA:139,0
DA:141,0
DA:143,0
DA:145,0
BRF:0
BRH:0
LF:21
LH:17
end_of_record
SF:C:\Users\shiro\Documents\Projects\hex-terapia-visual\terapia-visual\terapia_visual_domain\src\use_cases\start_therapy.rs
FN:27,_RNvNtNtNtCsiLuW8YBmGuA_21terapia_visual_domain9use_cases13start_therapy5tests13sample_config
FN:46,_RNvNtNtNtCsiLuW8YBmGuA_21terapia_visual_domain9use_cases13start_therapy5testss_21test_start_therapy_ok
FN:56,_RNvNtNtNtCsiLuW8YBmGuA_21terapia_visual_domain9use_cases13start_therapy5testss_33test_start_therapy_already_active
FN:12,_RNCNvNtNtCsiLuW8YBmGuA_21terapia_visual_domain9use_cases13start_therapy13start_therapy0B7_
FN:46,_RNCNvNtNtNtCsiLuW8YBmGuA_21terapia_visual_domain9use_cases13start_therapy5testss_21test_start_therapy_ok0B9_
FN:56,_RNCNvNtNtNtCsiLuW8YBmGuA_21terapia_visual_domain9use_cases13start_therapy5testss_33test_start_therapy_already_active0B9_
FN:7,_RNvNtNtCsiLuW8YBmGuA_21terapia_visual_domain9use_cases13start_therapy13start_therapy
FNDA:2,_RNvNtNtNtCsiLuW8YBmGuA_21terapia_visual_domain9use_cases13start_therapy5tests13sample_config
FNDA:1,_RNvNtNtNtCsiLuW8YBmGuA_21terapia_visual_domain9use_cases13start_therapy5testss_21test_start_therapy_ok
FNDA:1,_RNvNtNtNtCsiLuW8YBmGuA_21terapia_visual_domain9use_cases13start_therapy5testss_33test_start_therapy_already_active
FNDA:2,_RNCNvNtNtCsiLuW8YBmGuA_21terapia_visual_domain9use_cases13start_therapy13start_therapy0B7_
FNDA:1,_RNCNvNtNtNtCsiLuW8YBmGuA_21terapia_visual_domain9use_cases13start_therapy5testss_21test_start_therapy_ok0B9_
FNDA:1,_RNCNvNtNtNtCsiLuW8YBmGuA_21terapia_visual_domain9use_cases13start_therapy5testss_33test_start_therapy_already_active0B9_
FNDA:2,_RNvNtNtCsiLuW8YBmGuA_21terapia_visual_domain9use_cases13start_therapy13start_therapy
FNF:7
FNH:7
DA:7,2
DA:8,2
DA:9,2
DA:10,2
DA:11,2
DA:12,2
DA:13,2
DA:14,1
DA:17,1
DA:19,2
DA:27,2
DA:28,2
DA:29,2
DA:30,2
DA:31,2
DA:32,2
DA:33,2
DA:34,2
DA:35,2
DA:36,2
DA:37,2
DA:38,2
DA:39,2
DA:42,2
DA:43,2
DA:46,1
DA:47,1
DA:48,1
DA:49,1
DA:50,1
DA:51,1
DA:52,1
DA:53,1
DA:56,1
DA:57,1
DA:58,1
DA:59,1
DA:60,1
DA:61,1
DA:62,1
DA:63,1
DA:64,1
BRF:0
BRH:0
LF:47
LH:47
end_of_record
SF:C:\Users\shiro\Documents\Projects\hex-terapia-visual\terapia-visual\terapia_visual_domain\src\use_cases\stop_therapy.rs
FN:4,_RNvNtNtCsiLuW8YBmGuA_21terapia_visual_domain9use_cases12stop_therapy12stop_therapy
FN:18,_RNvNtNtNtCsiLuW8YBmGuA_21terapia_visual_domain9use_cases12stop_therapy5testss_20test_stop_therapy_ok
FN:30,_RNvNtNtNtCsiLuW8YBmGuA_21terapia_visual_domain9use_cases12stop_therapy5testss_28test_stop_therapy_not_active
FN:4,_RNCNvNtNtCsiLuW8YBmGuA_21terapia_visual_domain9use_cases12stop_therapy12stop_therapy0B7_
FN:18,_RNCNvNtNtNtCsiLuW8YBmGuA_21terapia_visual_domain9use_cases12stop_therapy5testss_20test_stop_therapy_ok0B9_
FN:30,_RNCNvNtNtNtCsiLuW8YBmGuA_21terapia_visual_domain9use_cases12stop_therapy5testss_28test_stop_therapy_not_active0B9_
FNDA:2,_RNvNtNtCsiLuW8YBmGuA_21terapia_visual_domain9use_cases12stop_therapy12stop_therapy
FNDA:1,_RNvNtNtNtCsiLuW8YBmGuA_21terapia_visual_domain9use_cases12stop_therapy5testss_20test_stop_therapy_ok
FNDA:1,_RNvNtNtNtCsiLuW8YBmGuA_21terapia_visual_domain9use_cases12stop_therapy5testss_28test_stop_therapy_not_active
FNDA:2,_RNCNvNtNtCsiLuW8YBmGuA_21terapia_visual_domain9use_cases12stop_therapy12stop_therapy0B7_
FNDA:1,_RNCNvNtNtNtCsiLuW8YBmGuA_21terapia_visual_domain9use_cases12stop_therapy5testss_20test_stop_therapy_ok0B9_
FNDA:1,_RNCNvNtNtNtCsiLuW8YBmGuA_21terapia_visual_domain9use_cases12stop_therapy5testss_28test_stop_therapy_not_active0B9_
FNF:6
FNH:6
DA:4,2
DA:5,2
DA:6,1
DA:8,1
DA:10,2
DA:18,1
DA:19,1
DA:20,1
DA:21,1
DA:22,1
DA:23,1
DA:24,1
DA:25,1
DA:26,1
DA:27,1
DA:30,1
DA:31,1
DA:32,1
DA:33,1
DA:34,1
BRF:0
BRH:0
LF:25
LH:25
end_of_record
SF:C:\Users\shiro\Documents\Projects\hex-terapia-visual\terapia-visual\terapia_visual_domain\src\use_cases\update_app_settings.rs
FN:32,_RNvNtNtNtCsiLuW8YBmGuA_21terapia_visual_domain9use_cases19update_app_settings5testss_27test_update_app_settings_ok
FN:45,_RNvNtNtNtCsiLuW8YBmGuA_21terapia_visual_domain9use_cases19update_app_settings5testss_30test_update_app_settings_fails
FN:17,_RNCNvNtNtCsiLuW8YBmGuA_21terapia_visual_domain9use_cases19update_app_settings19update_app_settings0B7_
FN:14,_RNvNtNtCsiLuW8YBmGuA_21terapia_visual_domain9use_cases19update_app_settings19update_app_settings
FN:32,_RNCNvNtNtNtCsiLuW8YBmGuA_21terapia_visual_domain9use_cases19update_app_settings5testss_27test_update_app_settings_ok0B9_
FN:45,_RNCNvNtNtNtCsiLuW8YBmGuA_21terapia_visual_domain9use_cases19update_app_settings5testss_30test_update_app_settings_fails0B9_
FNDA:1,_RNvNtNtNtCsiLuW8YBmGuA_21terapia_visual_domain9use_cases19update_app_settings5testss_27test_update_app_settings_ok
FNDA:1,_RNvNtNtNtCsiLuW8YBmGuA_21terapia_visual_domain9use_cases19update_app_settings5testss_30test_update_app_settings_fails
FNDA:2,_RNCNvNtNtCsiLuW8YBmGuA_21terapia_visual_domain9use_cases19update_app_settings19update_app_settings0B7_
FNDA:2,_RNvNtNtCsiLuW8YBmGuA_21terapia_visual_domain9use_cases19update_app_settings19update_app_settings
FNDA:1,_RNCNvNtNtNtCsiLuW8YBmGuA_21terapia_visual_domain9use_cases19update_app_settings5testss_27test_update_app_settings_ok0B9_
FNDA:1,_RNCNvNtNtNtCsiLuW8YBmGuA_21terapia_visual_domain9use_cases19update_app_settings5testss_30test_update_app_settings_fails0B9_
FNF:6
FNH:6
DA:14,2
DA:15,2
DA:16,2
DA:17,2
DA:18,2
DA:19,2
DA:20,2
DA:21,2
DA:22,1
DA:23,2
DA:32,1
DA:33,1
DA:34,1
DA:35,1
DA:36,1
DA:37,1
DA:38,1
DA:39,1
DA:40,1
DA:41,1
DA:42,1
DA:45,1
DA:46,1
DA:47,1
DA:48,1
DA:49,1
DA:50,1
DA:52,1
DA:53,1
DA:54,1
BRF:0
BRH:0
LF:35
LH:35
end_of_record
SF:C:\Users\shiro\Documents\Projects\hex-terapia-visual\terapia-visual\terapia_visual_domain\src\use_cases\update_therapy_config.rs
FN:74,_RNCNvNtNtNtCsiLuW8YBmGuA_21terapia_visual_domain9use_cases21update_therapy_config5testss_30test_update_config_when_active0B9_
FN:64,_RNCNvNtNtNtCsiLuW8YBmGuA_21terapia_visual_domain9use_cases21update_therapy_config5testss_32test_update_config_when_inactive0B9_
FN:15,_RNvNtNtCsiLuW8YBmGuA_21terapia_visual_domain9use_cases21update_therapy_config21update_therapy_config
FN:21,_RNCNvNtNtCsiLuW8YBmGuA_21terapia_visual_domain9use_cases21update_therapy_config21update_therapy_config0B7_
FN:45,_RNvNtNtNtCsiLuW8YBmGuA_21terapia_visual_domain9use_cases21update_therapy_config5tests13sample_config
FN:74,_RNvNtNtNtCsiLuW8YBmGuA_21terapia_visual_domain9use_cases21update_therapy_config5testss_30test_update_config_when_active
FN:64,_RNvNtNtNtCsiLuW8YBmGuA_21terapia_visual_domain9use_cases21update_therapy_config5testss_32test_update_config_when_inactive
FNDA:1,_RNCNvNtNtNtCsiLuW8YBmGuA_21terapia_visual_domain9use_cases21update_therapy_config5testss_30test_update_config_when_active0B9_
FNDA:1,_RNCNvNtNtNtCsiLuW8YBmGuA_21terapia_visual_domain9use_cases21update_therapy_config5testss_32test_update_config_when_inactive0B9_
FNDA:2,_RNvNtNtCsiLuW8YBmGuA_21terapia_visual_domain9use_cases21update_therapy_config21update_therapy_config
FNDA:2,_RNCNvNtNtCsiLuW8YBmGuA_21terapia_visual_domain9use_cases21update_therapy_config21update_therapy_config0B7_
FNDA:2,_RNvNtNtNtCsiLuW8YBmGuA_21terapia_visual_domain9use_cases21update_therapy_config5tests13sample_config
FNDA:1,_RNvNtNtNtCsiLuW8YBmGuA_21terapia_visual_domain9use_cases21update_therapy_config5testss_30test_update_config_when_active
FNDA:1,_RNvNtNtNtCsiLuW8YBmGuA_21terapia_visual_domain9use_cases21update_therapy_config5testss_32test_update_config_when_inactive
FNF:7
FNH:7
DA:15,2
DA:16,2
DA:17,2
DA:18,2
DA:19,2
DA:20,2
DA:21,2
DA:23,2
DA:24,2
DA:25,2
DA:26,2
DA:29,2
DA:30,1
DA:31,1
DA:32,1
DA:33,1
DA:34,1
DA:36,2
DA:37,2
DA:45,2
DA:46,2
DA:47,2
DA:48,2
DA:49,2
DA:50,2
DA:51,2
DA:52,2
DA:53,2
DA:54,2
DA:55,2
DA:56,2
DA:57,2
DA:60,2
DA:61,2
DA:64,1
DA:65,1
DA:66,1
DA:67,1
DA:68,1
DA:69,1
DA:70,1
DA:71,1
DA:74,1
DA:75,1
DA:76,1
DA:77,1
DA:78,1
DA:79,1
DA:80,1
DA:81,1
DA:82,1
DA:83,1
DA:84,1
BRF:0
BRH:0
LF:58
LH:58
end_of_record